; Function Attrs: nounwind uwtable
define ptr @l_Lean_Compiler_LCNF_UnreachableBranches_updateVarAssignment(ptr noundef %0, ptr noundef %1, ptr noundef readonly captures(none) %2, ptr noundef %3, ptr readnone captures(none) %4, ptr readnone captures(none) %5, ptr readnone captures(none) %6, ptr readnone captures(none) %7, ptr noundef %8) local_unnamed_addr #1 {
  %10 = tail call ptr @l_Lean_Compiler_LCNF_UnreachableBranches_findVarValue(ptr noundef %0, ptr noundef %2, ptr noundef %3, ptr poison, ptr poison, ptr poison, ptr poison, ptr noundef %8)
  %11 = getelementptr inbounds nuw i8, ptr %10, i64 8
  %12 = load ptr, ptr %11, align 8, !tbaa !11
  %13 = ptrtoint ptr %12 to i64
  %14 = and i64 %13, 1
  %.not = icmp eq i64 %14, 0
  br i1 %.not, label %15, label %lean_inc.exit28

15:                                               ; preds = %9
  %.val.i = load i32, ptr %12, align 4, !tbaa !4
  %16 = icmp sgt i32 %.val.i, 0
  br i1 %16, label %17, label %19, !prof !13

17:                                               ; preds = %15
  %18 = add nuw i32 %.val.i, 1
  store i32 %18, ptr %12, align 4, !tbaa !4
  br label %lean_inc.exit28

19:                                               ; preds = %15
  %.not.i29 = icmp eq i32 %.val.i, 0
  br i1 %.not.i29, label %lean_inc.exit28, label %20

20:                                               ; preds = %19
  tail call void @lean_inc_ref_cold(ptr noundef nonnull %12) #8
  br label %lean_inc.exit28

lean_inc.exit28:                                  ; preds = %20, %19, %17, %9
  %21 = getelementptr inbounds nuw i8, ptr %10, i64 16
  %22 = load ptr, ptr %21, align 8, !tbaa !11
  %23 = ptrtoint ptr %22 to i64
  %24 = and i64 %23, 1
  %.not33 = icmp eq i64 %24, 0
  br i1 %.not33, label %25, label %lean_inc.exit

25:                                               ; preds = %lean_inc.exit28
  %.val.i30 = load i32, ptr %22, align 4, !tbaa !4
  %26 = icmp sgt i32 %.val.i30, 0
  br i1 %26, label %27, label %29, !prof !13

27:                                               ; preds = %25
  %28 = add nuw i32 %.val.i30, 1
  store i32 %28, ptr %22, align 4, !tbaa !4
  br label %lean_inc.exit

29:                                               ; preds = %25
  %.not.i31 = icmp eq i32 %.val.i30, 0
  br i1 %.not.i31, label %lean_inc.exit, label %30

30:                                               ; preds = %29
  tail call void @lean_inc_ref_cold(ptr noundef nonnull %22) #8
  br label %lean_inc.exit

lean_inc.exit:                                    ; preds = %30, %29, %27, %lean_inc.exit28
  %31 = ptrtoint ptr %10 to i64
  %32 = and i64 %31, 1
  %.not34 = icmp eq i64 %32, 0
  br i1 %.not34, label %33, label %lean_dec.exit

33:                                               ; preds = %lean_inc.exit
  %34 = load i32, ptr %10, align 4, !tbaa !4
  %35 = icmp sgt i32 %34, 1
  br i1 %35, label %36, label %38, !prof !13

36:                                               ; preds = %33
  %37 = add nsw i32 %34, -1
  store i32 %37, ptr %10, align 4, !tbaa !4
  br label %lean_dec.exit

38:                                               ; preds = %33
  %.not.i = icmp eq i32 %34, 0
  br i1 %.not.i, label %lean_dec.exit, label %39

39:                                               ; preds = %38
  tail call void @lean_dec_ref_cold(ptr noundef nonnull %10) #8
  br label %lean_dec.exit

lean_dec.exit:                                    ; preds = %39, %38, %36, %lean_inc.exit
  %40 = tail call ptr @l_Lean_Compiler_LCNF_UnreachableBranches_Value_merge(ptr noundef %12, ptr noundef %1)
  tail call void @lean_inc_heartbeat() #8
  %41 = tail call noalias ptr @mi_malloc_small(i64 noundef 40) #8
  %42 = icmp eq ptr %41, null
  br i1 %42, label %43, label %lean_alloc_closure.exit

43:                                               ; preds = %lean_dec.exit
  tail call void @lean_internal_panic_out_of_memory() #7
  unreachable

lean_alloc_closure.exit:                          ; preds = %lean_dec.exit
  %44 = getelementptr inbounds nuw i8, ptr %41, i64 4
  store i32 1, ptr %41, align 4, !tbaa !4
  store i32 -184549336, ptr %44, align 4
  %45 = getelementptr inbounds nuw i8, ptr %41, i64 8
  store ptr @l_Lean_Compiler_LCNF_UnreachableBranches_updateVarAssignment___lambda__1, ptr %45, align 8, !tbaa !11
  %46 = getelementptr inbounds nuw i8, ptr %41, i64 16
  store i16 3, ptr %46, align 8, !tbaa !15
  %47 = getelementptr inbounds nuw i8, ptr %41, i64 18
  store i16 2, ptr %47, align 2, !tbaa !15
  %48 = getelementptr inbounds nuw i8, ptr %41, i64 24
  store ptr %0, ptr %48, align 8, !tbaa !11
  %49 = getelementptr inbounds nuw i8, ptr %41, i64 32
  store ptr %40, ptr %49, align 8, !tbaa !11
  %50 = tail call ptr @l_Lean_Compiler_LCNF_UnreachableBranches_modifyAssignment(ptr noundef nonnull %41, ptr noundef %2, ptr noundef %3, ptr poison, ptr poison, ptr poison, ptr poison, ptr noundef %22)
  ret ptr %50
}